target datalayout = "e-m:e-p270:32:32-p271:32:32-p272:64:64-i64:64-i128:128-f80:128-n8:16:32:64-S128"
target triple = "x86_64-pc-linux-gnu"

%"struct.llvm::detail::PunnedPointer.342" = type { [8 x i8] }
%"class.clang::SourceLocation" = type { i32 }
%"class.clang::CXXCtorInitializer" = type <{ %"class.llvm::PointerUnion.549", ptr, %"class.clang::SourceLocation", %"class.clang::SourceLocation", %"class.clang::SourceLocation", i16, [2 x i8] }>
%"class.llvm::PointerUnion.549" = type { %"class.llvm::pointer_union_detail::PointerUnionMembers.550" }
%"class.llvm::pointer_union_detail::PointerUnionMembers.550" = type { %"class.llvm::pointer_union_detail::PointerUnionMembers.551" }
%"class.llvm::pointer_union_detail::PointerUnionMembers.551" = type { %"class.llvm::pointer_union_detail::PointerUnionMembers.552" }
%"class.llvm::pointer_union_detail::PointerUnionMembers.552" = type { %"class.llvm::pointer_union_detail::PointerUnionMembers.553" }
%"class.llvm::pointer_union_detail::PointerUnionMembers.553" = type { %"class.llvm::PointerIntPair.554" }
%"class.llvm::PointerIntPair.554" = type { %"struct.llvm::detail::PunnedPointer.342" }

; Function Attrs: mustprogress nounwind uwtable
define linkonce_odr hidden noundef ptr @_ZN4llvm20pointer_union_detail22PointerUnionUIntTraitsIJPN5clang14TypeSourceInfoEPNS2_9FieldDeclEPNS2_17IndirectFieldDeclEEE16getAsVoidPointerEPv(ptr noundef %0) #0 comdat align 2 {
  %2 = alloca ptr, align 8
  store ptr %0, ptr %2, align 8
  %3 = load ptr, ptr %2, align 8
  ret ptr %3
}

; Function Attrs: mustprogress nounwind uwtable
define linkonce_odr hidden void @_ZN4llvm20pointer_union_detail19PointerUnionMembersINS_12PointerUnionIJPN5clang14TypeSourceInfoEPNS3_9FieldDeclEPNS3_17IndirectFieldDeclEEEENS_14PointerIntPairIPvLj2EiNS0_22PointerUnionUIntTraitsIJS5_S7_S9_EEENS_18PointerIntPairInfoISC_Lj2ESE_EEEELi3EJEEC2ESH_(ptr noundef nonnull align 8 dereferenceable(8) %0, i64 %1) unnamed_addr #0 comdat align 2 {
  %3 = alloca %"class.llvm::PointerIntPair.554", align 8
  %4 = alloca ptr, align 8
  %5 = getelementptr inbounds nuw %"class.llvm::PointerIntPair.554", ptr %3, i32 0, i32 0
  %6 = getelementptr inbounds nuw %"struct.llvm::detail::PunnedPointer.342", ptr %5, i32 0, i32 0
  store i64 %1, ptr %6, align 8
  store ptr %0, ptr %4, align 8
  %7 = load ptr, ptr %4, align 8
  %8 = getelementptr inbounds nuw %"class.llvm::pointer_union_detail::PointerUnionMembers.553", ptr %7, i32 0, i32 0
  call void @llvm.memcpy.p0.p0.i64(ptr align 8 %8, ptr align 8 %3, i64 8, i1 false)
  ret void
}

; Function Attrs: mustprogress nounwind uwtable
define linkonce_odr hidden noundef i64 @_ZN4llvm18PointerIntPairInfoIPvLj2ENS_20pointer_union_detail22PointerUnionUIntTraitsIJPN5clang14TypeSourceInfoEPNS4_9FieldDeclEPNS4_17IndirectFieldDeclEEEEE9updateIntEll(i64 noundef %0, i64 noundef %1) #0 comdat align 2 {
  %3 = alloca i64, align 8
  %4 = alloca i64, align 8
  %5 = alloca i64, align 8
  store i64 %0, ptr %3, align 8
  store i64 %1, ptr %4, align 8
  %6 = load i64, ptr %4, align 8
  store i64 %6, ptr %5, align 8
  %7 = load i64, ptr %3, align 8
  %8 = and i64 %7, -7
  %9 = load i64, ptr %5, align 8
  %10 = shl i64 %9, 1
  %11 = or i64 %8, %10
  ret i64 %11
}

; Function Attrs: mustprogress nounwind uwtable
define linkonce_odr hidden noundef i64 @_ZN4llvm18PointerIntPairInfoIPvLj2ENS_20pointer_union_detail22PointerUnionUIntTraitsIJPN5clang14TypeSourceInfoEPNS4_9FieldDeclEPNS4_17IndirectFieldDeclEEEEE13updatePointerElS1_(i64 noundef %0, ptr noundef %1) #0 comdat align 2 {
  %3 = alloca i64, align 8
  %4 = alloca ptr, align 8
  %5 = alloca i64, align 8
  store i64 %0, ptr %3, align 8
  store ptr %1, ptr %4, align 8
  %6 = load ptr, ptr %4, align 8
  %7 = call noundef ptr @_ZN4llvm20pointer_union_detail22PointerUnionUIntTraitsIJPN5clang14TypeSourceInfoEPNS2_9FieldDeclEPNS2_17IndirectFieldDeclEEE16getAsVoidPointerEPv(ptr noundef %6)
  %8 = ptrtoint ptr %7 to i64
  store i64 %8, ptr %5, align 8
  %9 = load i64, ptr %5, align 8
  %10 = load i64, ptr %3, align 8
  %11 = and i64 %10, 7
  %12 = or i64 %9, %11
  ret i64 %12
}

; Function Attrs: mustprogress nounwind uwtable
define linkonce_odr hidden noundef nonnull align 8 dereferenceable(8) ptr @_ZN4llvm6detail13PunnedPointerIPvEaSEl(ptr noundef nonnull align 8 dereferenceable(8) %0, i64 noundef %1) #0 comdat align 2 {
  %3 = alloca ptr, align 8
  %4 = alloca i64, align 8
  store ptr %0, ptr %3, align 8
  store i64 %1, ptr %4, align 8
  %5 = load ptr, ptr %3, align 8
  %6 = getelementptr inbounds nuw %"struct.llvm::detail::PunnedPointer.342", ptr %5, i32 0, i32 0
  %7 = getelementptr inbounds [8 x i8], ptr %6, i64 0, i64 0
  call void @llvm.memcpy.p0.p0.i64(ptr align 8 %7, ptr align 8 %4, i64 8, i1 false)
  ret ptr %5
}

; Function Attrs: mustprogress nounwind uwtable
define linkonce_odr hidden void @_ZN4llvm20pointer_union_detail19PointerUnionMembersINS_12PointerUnionIJPN5clang14TypeSourceInfoEPNS3_9FieldDeclEPNS3_17IndirectFieldDeclEEEENS_14PointerIntPairIPvLj2EiNS0_22PointerUnionUIntTraitsIJS5_S7_S9_EEENS_18PointerIntPairInfoISC_Lj2ESE_EEEELi2EJS9_EECI2NS1_ISA_SH_Li3EJEEEESH_(ptr noundef nonnull align 8 dereferenceable(8) %0, i64 %1) unnamed_addr #0 comdat align 2 {
  %3 = alloca %"class.llvm::PointerIntPair.554", align 8
  %4 = alloca ptr, align 8
  %5 = getelementptr inbounds nuw %"class.llvm::PointerIntPair.554", ptr %3, i32 0, i32 0
  %6 = getelementptr inbounds nuw %"struct.llvm::detail::PunnedPointer.342", ptr %5, i32 0, i32 0
  store i64 %1, ptr %6, align 8
  store ptr %0, ptr %4, align 8
  %7 = load ptr, ptr %4, align 8
  %8 = getelementptr inbounds nuw %"class.llvm::PointerIntPair.554", ptr %3, i32 0, i32 0
  %9 = getelementptr inbounds nuw %"struct.llvm::detail::PunnedPointer.342", ptr %8, i32 0, i32 0
  %10 = load i64, ptr %9, align 8
  call void @_ZN4llvm20pointer_union_detail19PointerUnionMembersINS_12PointerUnionIJPN5clang14TypeSourceInfoEPNS3_9FieldDeclEPNS3_17IndirectFieldDeclEEEENS_14PointerIntPairIPvLj2EiNS0_22PointerUnionUIntTraitsIJS5_S7_S9_EEENS_18PointerIntPairInfoISC_Lj2ESE_EEEELi3EJEEC2ESH_(ptr noundef nonnull align 8 dereferenceable(8) %7, i64 %10)
  ret void
}

; Function Attrs: mustprogress nounwind uwtable
define linkonce_odr hidden void @_ZNR4llvm14PointerIntPairIPvLj2EiNS_20pointer_union_detail22PointerUnionUIntTraitsIJPN5clang14TypeSourceInfoEPNS4_9FieldDeclEPNS4_17IndirectFieldDeclEEEENS_18PointerIntPairInfoIS1_Lj2ESB_EEE16setPointerAndIntES1_i(ptr noundef nonnull align 8 dereferenceable(8) %0, ptr noundef %1, i32 noundef %2) #0 comdat align 2 {
  %4 = alloca ptr, align 8
  %5 = alloca ptr, align 8
  %6 = alloca i32, align 4
  store ptr %0, ptr %4, align 8
  store ptr %1, ptr %5, align 8
  store i32 %2, ptr %6, align 4
  %7 = load ptr, ptr %4, align 8
  %8 = load ptr, ptr %5, align 8
  %9 = call noundef i64 @_ZN4llvm18PointerIntPairInfoIPvLj2ENS_20pointer_union_detail22PointerUnionUIntTraitsIJPN5clang14TypeSourceInfoEPNS4_9FieldDeclEPNS4_17IndirectFieldDeclEEEEE13updatePointerElS1_(i64 noundef 0, ptr noundef %8)
  %10 = load i32, ptr %6, align 4
  %11 = sext i32 %10 to i64
  %12 = call noundef i64 @_ZN4llvm18PointerIntPairInfoIPvLj2ENS_20pointer_union_detail22PointerUnionUIntTraitsIJPN5clang14TypeSourceInfoEPNS4_9FieldDeclEPNS4_17IndirectFieldDeclEEEEE9updateIntEll(i64 noundef %9, i64 noundef %11)
  %13 = getelementptr inbounds nuw %"class.llvm::PointerIntPair.554", ptr %7, i32 0, i32 0
  %14 = call noundef nonnull align 8 dereferenceable(8) ptr @_ZN4llvm6detail13PunnedPointerIPvEaSEl(ptr noundef nonnull align 8 dereferenceable(8) %13, i64 noundef %12)
  ret void
}

; Function Attrs: mustprogress nounwind uwtable
define linkonce_odr hidden void @_ZN4llvm6detail13PunnedPointerIPvEC2El(ptr noundef nonnull align 8 dereferenceable(8) %0, i64 noundef %1) unnamed_addr #0 comdat align 2 {
  %3 = alloca ptr, align 8
  %4 = alloca i64, align 8
  store ptr %0, ptr %3, align 8
  store i64 %1, ptr %4, align 8
  %5 = load ptr, ptr %3, align 8
  %6 = load i64, ptr %4, align 8
  %7 = call noundef nonnull align 8 dereferenceable(8) ptr @_ZN4llvm6detail13PunnedPointerIPvEaSEl(ptr noundef nonnull align 8 dereferenceable(8) %5, i64 noundef %6)
  ret void
}

; Function Attrs: mustprogress nounwind uwtable
define linkonce_odr hidden void @_ZN4llvm20pointer_union_detail19PointerUnionMembersINS_12PointerUnionIJPN5clang14TypeSourceInfoEPNS3_9FieldDeclEPNS3_17IndirectFieldDeclEEEENS_14PointerIntPairIPvLj2EiNS0_22PointerUnionUIntTraitsIJS5_S7_S9_EEENS_18PointerIntPairInfoISC_Lj2ESE_EEEELi1EJS7_S9_EECI2NS1_ISA_SH_Li3EJEEEESH_(ptr noundef nonnull align 8 dereferenceable(8) %0, i64 %1) unnamed_addr #0 comdat align 2 {
  %3 = alloca %"class.llvm::PointerIntPair.554", align 8
  %4 = alloca ptr, align 8
  %5 = getelementptr inbounds nuw %"class.llvm::PointerIntPair.554", ptr %3, i32 0, i32 0
  %6 = getelementptr inbounds nuw %"struct.llvm::detail::PunnedPointer.342", ptr %5, i32 0, i32 0
  store i64 %1, ptr %6, align 8
  store ptr %0, ptr %4, align 8
  %7 = load ptr, ptr %4, align 8
  %8 = getelementptr inbounds nuw %"class.llvm::PointerIntPair.554", ptr %3, i32 0, i32 0
  %9 = getelementptr inbounds nuw %"struct.llvm::detail::PunnedPointer.342", ptr %8, i32 0, i32 0
  %10 = load i64, ptr %9, align 8
  call void @_ZN4llvm20pointer_union_detail19PointerUnionMembersINS_12PointerUnionIJPN5clang14TypeSourceInfoEPNS3_9FieldDeclEPNS3_17IndirectFieldDeclEEEENS_14PointerIntPairIPvLj2EiNS0_22PointerUnionUIntTraitsIJS5_S7_S9_EEENS_18PointerIntPairInfoISC_Lj2ESE_EEEELi2EJS9_EECI2NS1_ISA_SH_Li3EJEEEESH_(ptr noundef nonnull align 8 dereferenceable(8) %7, i64 %10)
  ret void
}

; Function Attrs: mustprogress nounwind uwtable
define linkonce_odr hidden void @_ZN4llvm14PointerIntPairIPvLj2EiNS_20pointer_union_detail22PointerUnionUIntTraitsIJPN5clang14TypeSourceInfoEPNS4_9FieldDeclEPNS4_17IndirectFieldDeclEEEENS_18PointerIntPairInfoIS1_Lj2ESB_EEEC2ES1_i(ptr noundef nonnull align 8 dereferenceable(8) %0, ptr noundef %1, i32 noundef %2) unnamed_addr #0 comdat align 2 {
  %4 = alloca ptr, align 8
  %5 = alloca ptr, align 8
  %6 = alloca i32, align 4
  store ptr %0, ptr %4, align 8
  store ptr %1, ptr %5, align 8
  store i32 %2, ptr %6, align 4
  %7 = load ptr, ptr %4, align 8
  %8 = getelementptr inbounds nuw %"class.llvm::PointerIntPair.554", ptr %7, i32 0, i32 0
  call void @_ZN4llvm6detail13PunnedPointerIPvEC2El(ptr noundef nonnull align 8 dereferenceable(8) %8, i64 noundef 0)
  %9 = load ptr, ptr %5, align 8
  %10 = load i32, ptr %6, align 4
  call void @_ZNR4llvm14PointerIntPairIPvLj2EiNS_20pointer_union_detail22PointerUnionUIntTraitsIJPN5clang14TypeSourceInfoEPNS4_9FieldDeclEPNS4_17IndirectFieldDeclEEEENS_18PointerIntPairInfoIS1_Lj2ESB_EEE16setPointerAndIntES1_i(ptr noundef nonnull align 8 dereferenceable(8) %7, ptr noundef %9, i32 noundef %10)
  ret void
}

; Function Attrs: mustprogress nounwind uwtable
define linkonce_odr hidden noundef ptr @_ZN4llvm21PointerLikeTypeTraitsIPN5clang14TypeSourceInfoEE16getAsVoidPointerES3_(ptr noundef %0) #0 comdat align 2 {
  %2 = alloca ptr, align 8
  store ptr %0, ptr %2, align 8
  %3 = load ptr, ptr %2, align 8
  ret ptr %3
}

; Function Attrs: mustprogress nounwind uwtable
define linkonce_odr hidden void @_ZN4llvm20pointer_union_detail19PointerUnionMembersINS_12PointerUnionIJPN5clang14TypeSourceInfoEPNS3_9FieldDeclEPNS3_17IndirectFieldDeclEEEENS_14PointerIntPairIPvLj2EiNS0_22PointerUnionUIntTraitsIJS5_S7_S9_EEENS_18PointerIntPairInfoISC_Lj2ESE_EEEELi0EJS5_S7_S9_EEC2ES5_(ptr noundef nonnull align 8 dereferenceable(8) %0, ptr noundef %1) unnamed_addr #0 comdat align 2 {
  %3 = alloca ptr, align 8
  %4 = alloca ptr, align 8
  %5 = alloca %"class.llvm::PointerIntPair.554", align 8
  store ptr %0, ptr %3, align 8
  store ptr %1, ptr %4, align 8
  %6 = load ptr, ptr %3, align 8
  %7 = load ptr, ptr %4, align 8
  %8 = call noundef ptr @_ZN4llvm21PointerLikeTypeTraitsIPN5clang14TypeSourceInfoEE16getAsVoidPointerES3_(ptr noundef %7)
  call void @_ZN4llvm14PointerIntPairIPvLj2EiNS_20pointer_union_detail22PointerUnionUIntTraitsIJPN5clang14TypeSourceInfoEPNS4_9FieldDeclEPNS4_17IndirectFieldDeclEEEENS_18PointerIntPairInfoIS1_Lj2ESB_EEEC2ES1_i(ptr noundef nonnull align 8 dereferenceable(8) %5, ptr noundef %8, i32 noundef 0)
  %9 = getelementptr inbounds nuw %"class.llvm::PointerIntPair.554", ptr %5, i32 0, i32 0
  %10 = getelementptr inbounds nuw %"struct.llvm::detail::PunnedPointer.342", ptr %9, i32 0, i32 0
  %11 = load i64, ptr %10, align 8
  call void @_ZN4llvm20pointer_union_detail19PointerUnionMembersINS_12PointerUnionIJPN5clang14TypeSourceInfoEPNS3_9FieldDeclEPNS3_17IndirectFieldDeclEEEENS_14PointerIntPairIPvLj2EiNS0_22PointerUnionUIntTraitsIJS5_S7_S9_EEENS_18PointerIntPairInfoISC_Lj2ESE_EEEELi1EJS7_S9_EECI2NS1_ISA_SH_Li3EJEEEESH_(ptr noundef nonnull align 8 dereferenceable(8) %6, i64 %11)
  ret void
}

; Function Attrs: mustprogress nounwind uwtable
define linkonce_odr hidden void @_ZN4llvm12PointerUnionIJPN5clang14TypeSourceInfoEPNS1_9FieldDeclEPNS1_17IndirectFieldDeclEEECI2NS_20pointer_union_detail19PointerUnionMembersIS8_NS_14PointerIntPairIPvLj2EiNS9_22PointerUnionUIntTraitsIJS3_S5_S7_EEENS_18PointerIntPairInfoISC_Lj2ESE_EEEELi0EJS3_S5_S7_EEEES3_(ptr noundef nonnull align 8 dereferenceable(8) %0, ptr noundef %1) unnamed_addr #0 comdat align 2 {
  %3 = alloca ptr, align 8
  %4 = alloca ptr, align 8
  store ptr %0, ptr %3, align 8
  store ptr %1, ptr %4, align 8
  %5 = load ptr, ptr %3, align 8
  %6 = load ptr, ptr %4, align 8
  call void @_ZN4llvm20pointer_union_detail19PointerUnionMembersINS_12PointerUnionIJPN5clang14TypeSourceInfoEPNS3_9FieldDeclEPNS3_17IndirectFieldDeclEEEENS_14PointerIntPairIPvLj2EiNS0_22PointerUnionUIntTraitsIJS5_S7_S9_EEENS_18PointerIntPairInfoISC_Lj2ESE_EEEELi0EJS5_S7_S9_EEC2ES5_(ptr noundef nonnull align 8 dereferenceable(8) %5, ptr noundef %6)
  ret void
}

; Function Attrs: mustprogress nounwind uwtable
define dso_local void @_ZN5clang18CXXCtorInitializerC2ERNS_10ASTContextEPNS_14TypeSourceInfoEbNS_14SourceLocationEPNS_4ExprES5_S5_(ptr noundef nonnull align 8 dereferenceable(32) %0, ptr noundef nonnull align 8 dereferenceable(23096) %1, ptr noundef %2, i1 noundef zeroext %3, i32 %4, ptr noundef %5, i32 %6, i32 %7) unnamed_addr #0 align 2 {
  %9 = alloca %"class.clang::SourceLocation", align 4
  %10 = alloca %"class.clang::SourceLocation", align 4
  %11 = alloca %"class.clang::SourceLocation", align 4
  %12 = alloca ptr, align 8
  %13 = alloca ptr, align 8
  %14 = alloca ptr, align 8
  %15 = alloca i8, align 1
  %16 = alloca ptr, align 8
  %17 = getelementptr inbounds nuw %"class.clang::SourceLocation", ptr %9, i32 0, i32 0
  store i32 %4, ptr %17, align 4
  %18 = getelementptr inbounds nuw %"class.clang::SourceLocation", ptr %10, i32 0, i32 0
  store i32 %6, ptr %18, align 4
  %19 = getelementptr inbounds nuw %"class.clang::SourceLocation", ptr %11, i32 0, i32 0
  store i32 %7, ptr %19, align 4
  store ptr %0, ptr %12, align 8
  store ptr %1, ptr %13, align 8
  store ptr %2, ptr %14, align 8
  %20 = zext i1 %3 to i8
  store i8 %20, ptr %15, align 1
  store ptr %5, ptr %16, align 8
  %21 = load ptr, ptr %12, align 8
  %22 = getelementptr inbounds nuw %"class.clang::CXXCtorInitializer", ptr %21, i32 0, i32 0
  %23 = load ptr, ptr %14, align 8
  call void @_ZN4llvm12PointerUnionIJPN5clang14TypeSourceInfoEPNS1_9FieldDeclEPNS1_17IndirectFieldDeclEEECI2NS_20pointer_union_detail19PointerUnionMembersIS8_NS_14PointerIntPairIPvLj2EiNS9_22PointerUnionUIntTraitsIJS3_S5_S7_EEENS_18PointerIntPairInfoISC_Lj2ESE_EEEELi0EJS3_S5_S7_EEEES3_(ptr noundef nonnull align 8 dereferenceable(8) %22, ptr noundef %23)
  %24 = getelementptr inbounds nuw %"class.clang::CXXCtorInitializer", ptr %21, i32 0, i32 1
  %25 = load ptr, ptr %16, align 8
  store ptr %25, ptr %24, align 8
  %26 = getelementptr inbounds nuw %"class.clang::CXXCtorInitializer", ptr %21, i32 0, i32 2
  call void @llvm.memcpy.p0.p0.i64(ptr align 8 %26, ptr align 4 %11, i64 4, i1 false)
  %27 = getelementptr inbounds nuw %"class.clang::CXXCtorInitializer", ptr %21, i32 0, i32 3
  call void @llvm.memcpy.p0.p0.i64(ptr align 4 %27, ptr align 4 %9, i64 4, i1 false)
  %28 = getelementptr inbounds nuw %"class.clang::CXXCtorInitializer", ptr %21, i32 0, i32 4
  call void @llvm.memcpy.p0.p0.i64(ptr align 8 %28, ptr align 4 %10, i64 4, i1 false)
  %29 = getelementptr inbounds nuw %"class.clang::CXXCtorInitializer", ptr %21, i32 0, i32 5
  %30 = load i16, ptr %29, align 4
  %31 = and i16 %30, -2
  %32 = or i16 %31, 0
  store i16 %32, ptr %29, align 4
  %33 = getelementptr inbounds nuw %"class.clang::CXXCtorInitializer", ptr %21, i32 0, i32 5
  %34 = load i8, ptr %15, align 1
  %35 = trunc i8 %34 to i1
  %36 = zext i1 %35 to i32
  %37 = trunc i32 %36 to i16
  %38 = load i16, ptr %33, align 4
  %39 = and i16 %37, 1
  %40 = shl i16 %39, 1
  %41 = and i16 %38, -3
  %42 = or i16 %41, %40
  store i16 %42, ptr %33, align 4
  %43 = getelementptr inbounds nuw %"class.clang::CXXCtorInitializer", ptr %21, i32 0, i32 5
  %44 = load i16, ptr %43, align 4
  %45 = and i16 %44, -5
  %46 = or i16 %45, 0
  store i16 %46, ptr %43, align 4
  %47 = getelementptr inbounds nuw %"class.clang::CXXCtorInitializer", ptr %21, i32 0, i32 5
  %48 = load i16, ptr %47, align 4
  %49 = and i16 %48, 7
  %50 = or i16 %49, 0
  store i16 %50, ptr %47, align 4
  ret void
}